target datalayout = "e-m:e-p270:32:32-p271:32:32-p272:64:64-i64:64-i128:128-f80:128-n8:16:32:64-S128"
target triple = "x86_64-pc-linux-gnu"

%class.LBMLBTRMFrameEntry = type { %class.QTreeWidgetItem.base, i32 }
%class.QTreeWidgetItem.base = type <{ ptr, i32, [4 x i8], %class.QList, ptr, ptr, ptr, %class.QList.0, %class.QFlags }>
%class.QList = type { %struct.QArrayDataPointer }
%struct.QArrayDataPointer = type { ptr, ptr, i64 }
%class.QList.0 = type { %struct.QArrayDataPointer.3 }
%struct.QArrayDataPointer.3 = type { ptr, ptr, i64 }
%class.QFlags = type { i32 }

@_ZTI15QTreeWidgetItem = external constant ptr
@_ZTI18LBMLBTRMFrameEntry = linkonce_odr constant { ptr, ptr, ptr } { ptr getelementptr inbounds (ptr, ptr @_ZTVN10__cxxabiv120__si_class_type_infoE, i64 2), ptr @_ZTS18LBMLBTRMFrameEntry, ptr @_ZTI15QTreeWidgetItem }, comdat, align 8

; Function Attrs: mustprogress nounwind uwtable
define linkonce_odr noundef i32 @_ZN18LBMLBTRMFrameEntry8getFrameEv(ptr noundef nonnull align 8 dereferenceable(96) %0) #2 comdat align 2 {
  %2 = alloca ptr, align 8
  store ptr %0, ptr %2, align 8
  %3 = load ptr, ptr %2, align 8
  %4 = getelementptr inbounds %class.LBMLBTRMFrameEntry, ptr %3, i32 0, i32 1
  %5 = load i32, ptr %4, align 4
  ret i32 %5
}

; Function Attrs: mustprogress uwtable
define void @_ZN23LBMLBTRMTransportDialog32receiversDetailItemDoubleClickedEP15QTreeWidgetItemi(ptr noundef nonnull align 8 dereferenceable(96) %0, ptr noundef %1, i32 noundef %2) #0 align 2 {
  %4 = alloca ptr, align 8
  %5 = alloca ptr, align 8
  %6 = alloca i32, align 4
  %7 = alloca ptr, align 8
  store ptr %0, ptr %4, align 8
  store ptr %1, ptr %5, align 8
  store i32 %2, ptr %6, align 4
  %8 = load ptr, ptr %4, align 8
  %9 = load ptr, ptr %5, align 8
  %10 = icmp eq ptr %9, null
  br i1 %10, label %13, label %11

11:                                               ; preds = %3
  %12 = call ptr @__dynamic_cast(ptr %9, ptr @_ZTI15QTreeWidgetItem, ptr @_ZTI18LBMLBTRMFrameEntry, i64 0) #15
  br label %14

13:                                               ; preds = %3
  br label %14

14:                                               ; preds = %13, %11
  %15 = phi ptr [ %12, %11 ], [ null, %13 ]
  store ptr %15, ptr %7, align 8
  %16 = load ptr, ptr %7, align 8
  %17 = icmp eq ptr %16, null
  br i1 %17, label %18, label %19

18:                                               ; preds = %14
  br label %22

19:                                               ; preds = %14
  %20 = load ptr, ptr %7, align 8
  %21 = call noundef i32 @_ZN18LBMLBTRMFrameEntry8getFrameEv(ptr noundef nonnull align 8 dereferenceable(96) %20)
  call void @_ZN23LBMLBTRMTransportDialog10goToPacketEi(ptr noundef nonnull align 8 dereferenceable(96) %8, i32 noundef %21)
  br label %22

22:                                               ; preds = %19, %18
  ret void
}